; Function Attrs: nounwind sspstrong uwtable
define internal noundef i64 @mdview_initialize(i64 noundef %0, i64 noundef %1, i64 noundef %2, i64 noundef %3, i64 noundef %4) #0 {
  %6 = alloca i64, align 8
  store i64 %2, ptr %6, align 8, !tbaa !6
  %7 = icmp eq i64 %1, 0
  %8 = and i64 %1, 7
  %9 = icmp ne i64 %8, 0
  %10 = or i1 %7, %9
  br i1 %10, label %rbimpl_RB_TYPE_P_fastpath.exit.thread.i, label %11, !prof !38

11:                                               ; preds = %5
  %12 = inttoptr i64 %1 to ptr
  %13 = load i64, ptr %12, align 8, !tbaa !39
  %14 = and i64 %13, 31
  %15 = icmp eq i64 %14, 5
  br i1 %15, label %Check_Type.exit, label %rbimpl_RB_TYPE_P_fastpath.exit.thread.i, !prof !41

rbimpl_RB_TYPE_P_fastpath.exit.thread.i:          ; preds = %11, %5
  tail call void @rb_unexpected_type(i64 noundef %1, i32 noundef 5) #10
  unreachable

Check_Type.exit:                                  ; preds = %11
  %16 = call i64 @rb_string_value(ptr noundef nonnull %6) #9
  %17 = icmp eq i64 %3, 0
  %18 = and i64 %3, 7
  %19 = icmp ne i64 %18, 0
  %20 = or i1 %17, %19
  br i1 %20, label %rbimpl_RB_TYPE_P_fastpath.exit.thread.i11, label %21, !prof !38

21:                                               ; preds = %Check_Type.exit
  %22 = inttoptr i64 %3 to ptr
  %23 = load i64, ptr %22, align 8, !tbaa !39
  %24 = and i64 %23, 31
  %25 = icmp eq i64 %24, 7
  br i1 %25, label %Check_Type.exit12, label %rbimpl_RB_TYPE_P_fastpath.exit.thread.i11, !prof !41

rbimpl_RB_TYPE_P_fastpath.exit.thread.i11:        ; preds = %21, %Check_Type.exit
  call void @rb_unexpected_type(i64 noundef %3, i32 noundef 7) #10
  unreachable

Check_Type.exit12:                                ; preds = %21
  %26 = icmp eq i64 %4, 4
  br i1 %26, label %Check_Type.exit14, label %27

27:                                               ; preds = %Check_Type.exit12
  %28 = icmp eq i64 %4, 0
  %29 = and i64 %4, 7
  %30 = icmp ne i64 %29, 0
  %31 = or i1 %28, %30
  br i1 %31, label %rbimpl_RB_TYPE_P_fastpath.exit.thread.i13, label %32, !prof !38

32:                                               ; preds = %27
  %33 = inttoptr i64 %4 to ptr
  %34 = load i64, ptr %33, align 8, !tbaa !39
  %35 = and i64 %34, 31
  %36 = icmp eq i64 %35, 7
  br i1 %36, label %Check_Type.exit14, label %rbimpl_RB_TYPE_P_fastpath.exit.thread.i13, !prof !41

rbimpl_RB_TYPE_P_fastpath.exit.thread.i13:        ; preds = %32, %27
  call void @rb_unexpected_type(i64 noundef %4, i32 noundef 7) #10
  unreachable

Check_Type.exit14:                                ; preds = %32, %Check_Type.exit12
  %37 = load i64, ptr @id_str, align 8, !tbaa !6
  %38 = call i64 @rb_ivar_set(i64 noundef %0, i64 noundef %37, i64 noundef %1) #9
  %39 = load i64, ptr @sym_format, align 8, !tbaa !6
  %40 = call i64 @rb_sym2id(i64 noundef %39) #9
  %41 = load i64, ptr %6, align 8, !tbaa !6
  %42 = call i64 @rb_ivar_set(i64 noundef %0, i64 noundef %40, i64 noundef %41) #9
  %43 = load i64, ptr @sym_shape, align 8, !tbaa !6
  %44 = call i64 @rb_sym2id(i64 noundef %43) #9
  %45 = call i64 @rb_ivar_set(i64 noundef %0, i64 noundef %44, i64 noundef %3) #9
  %46 = load i64, ptr @sym_strides, align 8, !tbaa !6
  %47 = call i64 @rb_sym2id(i64 noundef %46) #9
  %48 = call i64 @rb_ivar_set(i64 noundef %0, i64 noundef %47, i64 noundef %4) #9
  ret i64 4
}